target datalayout = "e-m:e-p270:32:32-p271:32:32-p272:64:64-i64:64-i128:128-f80:128-n8:16:32:64-S128"
target triple = "x86_64-pc-linux-gnu"

; Function Attrs: mustprogress uwtable
define noundef i64 @_ZN32pxrInternal_v0_24__pxrReserved__10ArchPWriteEP8_IO_FILEPKvml(ptr noundef %0, ptr noundef %1, i64 noundef %2, i64 noundef %3) #0 {
  %5 = alloca i64, align 8
  %6 = alloca ptr, align 8
  %7 = alloca ptr, align 8
  %8 = alloca i64, align 8
  %9 = alloca i64, align 8
  %10 = alloca i32, align 4
  %11 = alloca i64, align 8
  %12 = alloca i64, align 8
  %13 = alloca i64, align 8
  store ptr %0, ptr %6, align 8
  store ptr %1, ptr %7, align 8
  store i64 %2, ptr %8, align 8
  store i64 %3, ptr %9, align 8
  %14 = load i64, ptr %9, align 8
  %15 = icmp slt i64 %14, 0
  br i1 %15, label %16, label %17

16:                                               ; preds = %4
  store i64 -1, ptr %5, align 8
  br label %62

17:                                               ; preds = %4
  %18 = load ptr, ptr %6, align 8
  %19 = call i32 @fileno(ptr noundef %18) #6
  store i32 %19, ptr %10, align 4
  %20 = load i64, ptr %8, align 8
  store i64 %20, ptr %11, align 8
  %21 = load i32, ptr %10, align 4
  %22 = load ptr, ptr %7, align 8
  %23 = load i64, ptr %11, align 8
  %24 = load i64, ptr %9, align 8
  %25 = call i64 @pwrite(i32 noundef %21, ptr noundef %22, i64 noundef %23, i64 noundef %24)
  store i64 %25, ptr %12, align 8
  %26 = load i64, ptr %12, align 8
  %27 = load i64, ptr %11, align 8
  %28 = icmp eq i64 %26, %27
  br i1 %28, label %29, label %31

29:                                               ; preds = %17
  %30 = load i64, ptr %12, align 8
  store i64 %30, ptr %5, align 8
  br label %62

31:                                               ; preds = %17
  store i64 0, ptr %13, align 8
  br label %32

32:                                               ; preds = %60, %31
  %33 = load i64, ptr %12, align 8
  %34 = icmp ne i64 %33, -1
  br i1 %34, label %35, label %61

35:                                               ; preds = %32
  %36 = load i64, ptr %12, align 8
  %37 = load i64, ptr %13, align 8
  %38 = add nsw i64 %37, %36
  store i64 %38, ptr %13, align 8
  %39 = load i64, ptr %12, align 8
  %40 = load i64, ptr %11, align 8
  %41 = sub nsw i64 %40, %39
  store i64 %41, ptr %11, align 8
  %42 = load i64, ptr %12, align 8
  %43 = load i64, ptr %9, align 8
  %44 = add nsw i64 %43, %42
  store i64 %44, ptr %9, align 8
  %45 = load ptr, ptr %7, align 8
  %46 = load i64, ptr %12, align 8
  %47 = getelementptr inbounds i8, ptr %45, i64 %46
  store ptr %47, ptr %7, align 8
  %48 = load i32, ptr %10, align 4
  %49 = load ptr, ptr %7, align 8
  %50 = load i64, ptr %11, align 8
  %51 = load i64, ptr %9, align 8
  %52 = call i64 @pwrite(i32 noundef %48, ptr noundef %49, i64 noundef %50, i64 noundef %51)
  store i64 %52, ptr %12, align 8
  %53 = load i64, ptr %12, align 8
  %54 = load i64, ptr %11, align 8
  %55 = icmp eq i64 %53, %54
  br i1 %55, label %56, label %60

56:                                               ; preds = %35
  %57 = load i64, ptr %13, align 8
  %58 = load i64, ptr %12, align 8
  %59 = add nsw i64 %57, %58
  store i64 %59, ptr %5, align 8
  br label %62

60:                                               ; preds = %35
  br label %32, !llvm.loop !9

61:                                               ; preds = %32
  store i64 -1, ptr %5, align 8
  br label %62

62:                                               ; preds = %61, %56, %29, %16
  %63 = load i64, ptr %5, align 8
  ret i64 %63
}