; Function Attrs: mustprogress nofree uwtable
define noundef i64 @_ZN32pxrInternal_v0_24__pxrReserved__10ArchPWriteEP8_IO_FILEPKvml(ptr noundef captures(none) %0, ptr noundef readonly captures(none) %1, i64 noundef %2, i64 noundef %3) local_unnamed_addr #14 {
  %5 = icmp slt i64 %3, 0
  br i1 %5, label %.loopexit, label %6

6:                                                ; preds = %4
  %7 = tail call i32 @fileno(ptr noundef %0) #23
  %8 = tail call i64 @pwrite(i32 noundef %7, ptr noundef %1, i64 noundef %2, i64 noundef %3)
  %9 = icmp eq i64 %8, %2
  br i1 %9, label %.loopexit, label %.preheader

.preheader:                                       ; preds = %6, %10
  %.031 = phi ptr [ %14, %10 ], [ %1, %6 ]
  %.030 = phi i64 [ %13, %10 ], [ %3, %6 ]
  %.028 = phi i64 [ %12, %10 ], [ %2, %6 ]
  %.027 = phi i64 [ %15, %10 ], [ %8, %6 ]
  %.0 = phi i64 [ %11, %10 ], [ 0, %6 ]
  %.not = icmp eq i64 %.027, -1
  br i1 %.not, label %.loopexit, label %10

10:                                               ; preds = %.preheader
  %11 = add nsw i64 %.0, %.027
  %12 = sub nsw i64 %.028, %.027
  %13 = add nsw i64 %.027, %.030
  %14 = getelementptr inbounds i8, ptr %.031, i64 %.027
  %15 = tail call i64 @pwrite(i32 noundef %7, ptr noundef %14, i64 noundef %12, i64 noundef %13)
  %16 = icmp eq i64 %15, %12
  br i1 %16, label %17, label %.preheader, !llvm.loop !25

17:                                               ; preds = %10
  %18 = add i64 %.0, %.028
  br label %.loopexit

.loopexit:                                        ; preds = %.preheader, %6, %4, %17
  %.029 = phi i64 [ %18, %17 ], [ -1, %4 ], [ %2, %6 ], [ -1, %.preheader ]
  ret i64 %.029
}